; Function Attrs: mustprogress nofree nounwind null_pointer_is_valid sspstrong willreturn memory(read, inaccessiblemem: none) uwtable
define internal range(i32 0, 2) i32 @fragment_addresses_equal(ptr noundef readonly captures(none) %0, ptr noundef readonly captures(none) %1) #1 {
  %3 = getelementptr inbounds nuw i8, ptr %0, i64 48
  %4 = load i32, ptr %3, align 8
  %5 = getelementptr inbounds nuw i8, ptr %1, i64 48
  %6 = load i32, ptr %5, align 8
  %7 = icmp eq i32 %4, %6
  br i1 %7, label %8, label %addresses_equal.exit

8:                                                ; preds = %2
  %9 = load i32, ptr %0, align 8
  %10 = load i32, ptr %1, align 8
  %11 = icmp eq i32 %9, %10
  br i1 %11, label %12, label %addresses_equal.exit

12:                                               ; preds = %8
  %13 = getelementptr inbounds nuw i8, ptr %0, i64 4
  %14 = load i32, ptr %13, align 4
  %15 = getelementptr inbounds nuw i8, ptr %1, i64 4
  %16 = load i32, ptr %15, align 4
  %17 = icmp eq i32 %14, %16
  br i1 %17, label %18, label %addresses_equal.exit

18:                                               ; preds = %12
  %19 = icmp eq i32 %14, 0
  br i1 %19, label %27, label %20

20:                                               ; preds = %18
  %21 = getelementptr inbounds nuw i8, ptr %0, i64 8
  %22 = load ptr, ptr %21, align 8
  %23 = getelementptr inbounds nuw i8, ptr %1, i64 8
  %24 = load ptr, ptr %23, align 8
  %25 = sext i32 %14 to i64
  %bcmp.i = tail call i32 @bcmp(ptr %22, ptr %24, i64 %25)
  %26 = icmp eq i32 %bcmp.i, 0
  br i1 %26, label %27, label %addresses_equal.exit

27:                                               ; preds = %20, %18
  %28 = getelementptr inbounds nuw i8, ptr %0, i64 24
  %29 = getelementptr inbounds nuw i8, ptr %1, i64 24
  %30 = load i32, ptr %28, align 8
  %31 = load i32, ptr %29, align 8
  %32 = icmp eq i32 %30, %31
  br i1 %32, label %33, label %48

33:                                               ; preds = %27
  %34 = getelementptr inbounds nuw i8, ptr %0, i64 28
  %35 = load i32, ptr %34, align 4
  %36 = getelementptr inbounds nuw i8, ptr %1, i64 28
  %37 = load i32, ptr %36, align 4
  %38 = icmp eq i32 %35, %37
  br i1 %38, label %39, label %48

39:                                               ; preds = %33
  %40 = icmp eq i32 %35, 0
  br i1 %40, label %addresses_equal.exit, label %41

41:                                               ; preds = %39
  %42 = getelementptr inbounds nuw i8, ptr %0, i64 32
  %43 = load ptr, ptr %42, align 8
  %44 = getelementptr inbounds nuw i8, ptr %1, i64 32
  %45 = load ptr, ptr %44, align 8
  %46 = sext i32 %35 to i64
  %bcmp.i9 = tail call i32 @bcmp(ptr %43, ptr %45, i64 %46)
  %47 = icmp eq i32 %bcmp.i9, 0
  br i1 %47, label %addresses_equal.exit, label %48

48:                                               ; preds = %41, %33, %27
  br label %addresses_equal.exit

addresses_equal.exit:                             ; preds = %48, %41, %39, %20, %12, %8, %2
  %49 = phi i32 [ 0, %2 ], [ 0, %8 ], [ 0, %12 ], [ 0, %20 ], [ 0, %48 ], [ 1, %41 ], [ 1, %39 ]
  ret i32 %49
}